target datalayout = "e-m:e-p270:32:32-p271:32:32-p272:64:64-i64:64-i128:128-f80:128-n8:16:32:64-S128"
target triple = "x86_64-pc-linux-gnu"

%struct._fvalue_t = type { ptr, %union.anon.1 }
%union.anon.1 = type { %struct._protocol_value_t }
%struct._protocol_value_t = type { ptr, i32, ptr, i8 }

@type_list = external global [48 x ptr], align 16
@.str.44 = private unnamed_addr constant [33 x i8] c"uint64_subtract: signed overflow\00", align 1
@.str.45 = private unnamed_addr constant [26 x i8] c"uint64_subtract: overflow\00", align 1
@.str.46 = private unnamed_addr constant [26 x i8] c"sint64_subtract: overflow\00", align 1

; Function Attrs: inlinehint nounwind null_pointer_is_valid sspstrong uwtable
define internal zeroext i1 @psnip_safe_int64_sub(ptr noundef %0, i64 noundef %1, i64 noundef %2) #8 {
  %4 = alloca ptr, align 8
  %5 = alloca i64, align 8
  %6 = alloca i64, align 8
  store ptr %0, ptr %4, align 8
  store i64 %1, ptr %5, align 8
  store i64 %2, ptr %6, align 8
  %7 = load i64, ptr %5, align 8
  %8 = load i64, ptr %6, align 8
  %9 = load ptr, ptr %4, align 8
  %10 = call { i64, i1 } @llvm.ssub.with.overflow.i64(i64 %7, i64 %8)
  %11 = extractvalue { i64, i1 } %10, 1
  %12 = extractvalue { i64, i1 } %10, 0
  store i64 %12, ptr %9, align 8
  %13 = xor i1 %11, true
  ret i1 %13
}

; Function Attrs: inlinehint nounwind null_pointer_is_valid sspstrong uwtable
define internal zeroext i1 @psnip_safe_uint64_sub(ptr noundef %0, i64 noundef %1, i64 noundef %2) #8 {
  %4 = alloca ptr, align 8
  %5 = alloca i64, align 8
  %6 = alloca i64, align 8
  store ptr %0, ptr %4, align 8
  store i64 %1, ptr %5, align 8
  store i64 %2, ptr %6, align 8
  %7 = load i64, ptr %5, align 8
  %8 = load i64, ptr %6, align 8
  %9 = load ptr, ptr %4, align 8
  %10 = call { i64, i1 } @llvm.usub.with.overflow.i64(i64 %7, i64 %8)
  %11 = extractvalue { i64, i1 } %10, 1
  %12 = extractvalue { i64, i1 } %10, 0
  store i64 %12, ptr %9, align 8
  %13 = xor i1 %11, true
  ret i1 %13
}

; Function Attrs: null_pointer_is_valid sspstrong uwtable
define internal i32 @_sint64_subtract(ptr noundef %0, i64 noundef %1, i64 noundef %2, ptr noundef %3) #0 {
  %5 = alloca i32, align 4
  %6 = alloca ptr, align 8
  %7 = alloca i64, align 8
  %8 = alloca i64, align 8
  %9 = alloca ptr, align 8
  store ptr %0, ptr %6, align 8
  store i64 %1, ptr %7, align 8
  store i64 %2, ptr %8, align 8
  store ptr %3, ptr %9, align 8
  %10 = load ptr, ptr %6, align 8
  %11 = load i64, ptr %7, align 8
  %12 = load i64, ptr %8, align 8
  %13 = call zeroext i1 @psnip_safe_int64_sub(ptr noundef %10, i64 noundef %11, i64 noundef %12)
  br i1 %13, label %17, label %14

14:                                               ; preds = %4
  %15 = call noalias ptr (ptr, ptr, ...) @wmem_strdup_printf(ptr noundef null, ptr noundef @.str.46)
  %16 = load ptr, ptr %9, align 8
  store ptr %15, ptr %16, align 8
  store i32 4, ptr %5, align 4
  br label %18

17:                                               ; preds = %4
  store i32 0, ptr %5, align 4
  br label %18

18:                                               ; preds = %17, %14
  %19 = load i32, ptr %5, align 4
  ret i32 %19
}

; Function Attrs: null_pointer_is_valid sspstrong uwtable
define internal i32 @uint64_subtract(ptr noundef %0, ptr noundef %1, ptr noundef %2, ptr noundef %3) #0 {
  %5 = alloca i32, align 4
  %6 = alloca ptr, align 8
  %7 = alloca ptr, align 8
  %8 = alloca ptr, align 8
  %9 = alloca ptr, align 8
  store ptr %0, ptr %6, align 8
  store ptr %1, ptr %7, align 8
  store ptr %2, ptr %8, align 8
  store ptr %3, ptr %9, align 8
  %10 = load ptr, ptr %8, align 8
  %11 = getelementptr inbounds nuw %struct._fvalue_t, ptr %10, i32 0, i32 1
  %12 = load i64, ptr %11, align 8
  %13 = load ptr, ptr %7, align 8
  %14 = getelementptr inbounds nuw %struct._fvalue_t, ptr %13, i32 0, i32 1
  %15 = load i64, ptr %14, align 8
  %16 = icmp ugt i64 %12, %15
  br i1 %16, label %17, label %46

17:                                               ; preds = %4
  %18 = load ptr, ptr %7, align 8
  %19 = getelementptr inbounds nuw %struct._fvalue_t, ptr %18, i32 0, i32 1
  %20 = load i64, ptr %19, align 8
  %21 = icmp ugt i64 %20, 9223372036854775807
  br i1 %21, label %27, label %22

22:                                               ; preds = %17
  %23 = load ptr, ptr %8, align 8
  %24 = getelementptr inbounds nuw %struct._fvalue_t, ptr %23, i32 0, i32 1
  %25 = load i64, ptr %24, align 8
  %26 = icmp ugt i64 %25, 9223372036854775807
  br i1 %26, label %27, label %30

27:                                               ; preds = %22, %17
  %28 = call noalias ptr (ptr, ptr, ...) @wmem_strdup_printf(ptr noundef null, ptr noundef @.str.44)
  %29 = load ptr, ptr %9, align 8
  store ptr %28, ptr %29, align 8
  store i32 4, ptr %5, align 4
  br label %60

30:                                               ; preds = %22
  br label %31

31:                                               ; preds = %30
  br label %32

32:                                               ; preds = %31
  %33 = load ptr, ptr getelementptr ([48 x ptr], ptr @type_list, i64 0, i64 19), align 8
  %34 = load ptr, ptr %6, align 8
  %35 = getelementptr inbounds nuw %struct._fvalue_t, ptr %34, i32 0, i32 0
  store ptr %33, ptr %35, align 8
  %36 = load ptr, ptr %6, align 8
  %37 = getelementptr inbounds nuw %struct._fvalue_t, ptr %36, i32 0, i32 1
  %38 = load ptr, ptr %7, align 8
  %39 = getelementptr inbounds nuw %struct._fvalue_t, ptr %38, i32 0, i32 1
  %40 = load i64, ptr %39, align 8
  %41 = load ptr, ptr %8, align 8
  %42 = getelementptr inbounds nuw %struct._fvalue_t, ptr %41, i32 0, i32 1
  %43 = load i64, ptr %42, align 8
  %44 = load ptr, ptr %9, align 8
  %45 = call i32 @_sint64_subtract(ptr noundef %37, i64 noundef %40, i64 noundef %43, ptr noundef %44)
  store i32 %45, ptr %5, align 4
  br label %60

46:                                               ; preds = %4
  %47 = load ptr, ptr %6, align 8
  %48 = getelementptr inbounds nuw %struct._fvalue_t, ptr %47, i32 0, i32 1
  %49 = load ptr, ptr %7, align 8
  %50 = getelementptr inbounds nuw %struct._fvalue_t, ptr %49, i32 0, i32 1
  %51 = load i64, ptr %50, align 8
  %52 = load ptr, ptr %8, align 8
  %53 = getelementptr inbounds nuw %struct._fvalue_t, ptr %52, i32 0, i32 1
  %54 = load i64, ptr %53, align 8
  %55 = call zeroext i1 @psnip_safe_uint64_sub(ptr noundef %48, i64 noundef %51, i64 noundef %54)
  br i1 %55, label %59, label %56

56:                                               ; preds = %46
  %57 = call noalias ptr (ptr, ptr, ...) @wmem_strdup_printf(ptr noundef null, ptr noundef @.str.45)
  %58 = load ptr, ptr %9, align 8
  store ptr %57, ptr %58, align 8
  store i32 4, ptr %5, align 4
  br label %60

59:                                               ; preds = %46
  store i32 0, ptr %5, align 4
  br label %60

60:                                               ; preds = %59, %56, %32, %27
  %61 = load i32, ptr %5, align 4
  ret i32 %61
}