; Function Attrs: null_pointer_is_valid sspstrong uwtable
define internal range(i32 0, 5) i32 @uint64_subtract(ptr noundef writeonly captures(none) %0, ptr noundef readonly captures(none) %1, ptr noundef readonly captures(none) %2, ptr noundef writeonly captures(none) %3) #0 {
  %5 = getelementptr inbounds nuw i8, ptr %2, i64 8
  %6 = load i64, ptr %5, align 8
  %7 = getelementptr inbounds nuw i8, ptr %1, i64 8
  %8 = load i64, ptr %7, align 8
  %9 = icmp ugt i64 %6, %8
  br i1 %9, label %10, label %24

10:                                               ; preds = %4
  %11 = or i64 %8, %6
  %or.cond.not = icmp sgt i64 %11, -1
  br i1 %or.cond.not, label %14, label %12

12:                                               ; preds = %10
  %13 = tail call noalias ptr (ptr, ptr, ...) @wmem_strdup_printf(ptr noundef null, ptr noundef nonnull @.str.44)
  store ptr %13, ptr %3, align 8
  br label %_sint64_subtract.exit

14:                                               ; preds = %10
  %15 = load ptr, ptr getelementptr inbounds nuw (i8, ptr @type_list, i64 152), align 8
  store ptr %15, ptr %0, align 8
  %16 = getelementptr inbounds nuw i8, ptr %0, i64 8
  %17 = load i64, ptr %7, align 8
  %18 = load i64, ptr %5, align 8
  %19 = tail call { i64, i1 } @llvm.ssub.with.overflow.i64(i64 %17, i64 %18)
  %20 = extractvalue { i64, i1 } %19, 1
  %21 = extractvalue { i64, i1 } %19, 0
  store i64 %21, ptr %16, align 8
  br i1 %20, label %22, label %_sint64_subtract.exit

22:                                               ; preds = %14
  %23 = tail call noalias ptr (ptr, ptr, ...) @wmem_strdup_printf(ptr noundef null, ptr noundef nonnull @.str.46)
  store ptr %23, ptr %3, align 8
  br label %_sint64_subtract.exit

24:                                               ; preds = %4
  %25 = getelementptr inbounds nuw i8, ptr %0, i64 8
  %26 = sub nuw i64 %8, %6
  store i64 %26, ptr %25, align 8
  br label %_sint64_subtract.exit

_sint64_subtract.exit:                            ; preds = %24, %22, %14, %12
  %.0 = phi i32 [ 4, %12 ], [ 0, %24 ], [ 4, %22 ], [ 0, %14 ]
  ret i32 %.0
}